target datalayout = "e-m:e-p270:32:32-p271:32:32-p272:64:64-i64:64-i128:128-f80:128-n8:16:32:64-S128"
target triple = "x86_64-pc-linux-gnu"

%struct.bio_st = type { ptr, ptr, ptr, i32, i32, i32, i32, i32, i32, ptr, ptr, i64, i64 }
%struct.timeval = type { i64, i64 }

@_ZN12_GLOBAL__N_117kOpcodeTimeoutAckE = internal constant i8 116, align 1
@stderr = external global ptr, align 8
@.str.1 = private unnamed_addr constant [20 x i8] c"Unknown opcode, %u\0A\00", align 1
@.str.2 = private unnamed_addr constant [28 x i8] c"Packeted BIO was truncated\0A\00", align 1

; Function Attrs: mustprogress uwtable
define internal noundef i32 @_ZN12_GLOBAL__N_17ReadAllEP6bio_stPhm(ptr noundef %0, ptr noundef %1, i64 noundef %2) #0 {
  %4 = alloca i32, align 4
  %5 = alloca ptr, align 8
  %6 = alloca ptr, align 8
  %7 = alloca i64, align 8
  %8 = alloca i32, align 4
  %9 = alloca i32, align 4
  %10 = alloca i32, align 4
  store ptr %0, ptr %5, align 8, !tbaa !20
  store ptr %1, ptr %6, align 8, !tbaa !25
  store i64 %2, ptr %7, align 8, !tbaa !29
  br label %11

11:                                               ; preds = %40, %3
  %12 = load i64, ptr %7, align 8, !tbaa !29
  %13 = icmp ugt i64 %12, 0
  br i1 %13, label %14, label %41

14:                                               ; preds = %11
  call void @llvm.lifetime.start.p0(i64 4, ptr %8) #11
  store i32 2147483647, ptr %8, align 4, !tbaa !26
  %15 = load i64, ptr %7, align 8, !tbaa !29
  %16 = icmp ule i64 %15, 2147483647
  br i1 %16, label %17, label %20

17:                                               ; preds = %14
  %18 = load i64, ptr %7, align 8, !tbaa !29
  %19 = trunc i64 %18 to i32
  store i32 %19, ptr %8, align 4, !tbaa !26
  br label %20

20:                                               ; preds = %17, %14
  call void @llvm.lifetime.start.p0(i64 4, ptr %9) #11
  %21 = load ptr, ptr %5, align 8, !tbaa !20
  %22 = load ptr, ptr %6, align 8, !tbaa !25
  %23 = load i32, ptr %8, align 4, !tbaa !26
  %24 = call i32 @BIO_read(ptr noundef %21, ptr noundef %22, i32 noundef %23)
  store i32 %24, ptr %9, align 4, !tbaa !26
  %25 = load i32, ptr %9, align 4, !tbaa !26
  %26 = icmp sle i32 %25, 0
  br i1 %26, label %27, label %29

27:                                               ; preds = %20
  %28 = load i32, ptr %9, align 4, !tbaa !26
  store i32 %28, ptr %4, align 4
  store i32 1, ptr %10, align 4
  br label %38

29:                                               ; preds = %20
  %30 = load i32, ptr %9, align 4, !tbaa !26
  %31 = load ptr, ptr %6, align 8, !tbaa !25
  %32 = sext i32 %30 to i64
  %33 = getelementptr inbounds i8, ptr %31, i64 %32
  store ptr %33, ptr %6, align 8, !tbaa !25
  %34 = load i32, ptr %9, align 4, !tbaa !26
  %35 = sext i32 %34 to i64
  %36 = load i64, ptr %7, align 8, !tbaa !29
  %37 = sub i64 %36, %35
  store i64 %37, ptr %7, align 8, !tbaa !29
  store i32 0, ptr %10, align 4
  br label %38

38:                                               ; preds = %29, %27
  call void @llvm.lifetime.end.p0(i64 4, ptr %9) #11
  call void @llvm.lifetime.end.p0(i64 4, ptr %8) #11
  %39 = load i32, ptr %10, align 4
  switch i32 %39, label %44 [
    i32 0, label %40
    i32 1, label %42
  ]

40:                                               ; preds = %38
  br label %11, !llvm.loop !37

41:                                               ; preds = %11
  store i32 1, ptr %4, align 4
  br label %42

42:                                               ; preds = %41, %38
  %43 = load i32, ptr %4, align 4
  ret i32 %43

44:                                               ; preds = %38
  unreachable
}

; Function Attrs: mustprogress uwtable
define internal noundef i32 @_ZN12_GLOBAL__N_112PacketedReadEP6bio_stPci(ptr noundef %0, ptr noundef %1, i32 noundef %2) #0 {
  %4 = alloca i32, align 4
  %5 = alloca ptr, align 8
  %6 = alloca ptr, align 8
  %7 = alloca i32, align 4
  %8 = alloca i8, align 1
  %9 = alloca i32, align 4
  %10 = alloca i32, align 4
  %11 = alloca [8 x i8], align 1
  %12 = alloca i64, align 8
  %13 = alloca ptr, align 8
  %14 = alloca [4 x i8], align 1
  %15 = alloca i32, align 4
  %16 = alloca ptr, align 8
  store ptr %0, ptr %5, align 8, !tbaa !20
  store ptr %1, ptr %6, align 8, !tbaa !25
  store i32 %2, ptr %7, align 4, !tbaa !26
  %17 = load ptr, ptr %5, align 8, !tbaa !20
  %18 = getelementptr inbounds nuw %struct.bio_st, ptr %17, i32 0, i32 10
  %19 = load ptr, ptr %18, align 8, !tbaa !27
  %20 = icmp eq ptr %19, null
  br i1 %20, label %21, label %22

21:                                               ; preds = %3
  store i32 0, ptr %4, align 4
  br label %186

22:                                               ; preds = %3
  %23 = load ptr, ptr %5, align 8, !tbaa !20
  call void @BIO_clear_retry_flags(ptr noundef %23)
  call void @llvm.lifetime.start.p0(i64 1, ptr %8) #11
  call void @llvm.lifetime.start.p0(i64 4, ptr %9) #11
  %24 = load ptr, ptr %5, align 8, !tbaa !20
  %25 = getelementptr inbounds nuw %struct.bio_st, ptr %24, i32 0, i32 10
  %26 = load ptr, ptr %25, align 8, !tbaa !27
  %27 = call noundef i32 @_ZN12_GLOBAL__N_17ReadAllEP6bio_stPhm(ptr noundef %26, ptr noundef %8, i64 noundef 1)
  store i32 %27, ptr %9, align 4, !tbaa !26
  %28 = load i32, ptr %9, align 4, !tbaa !26
  %29 = icmp sle i32 %28, 0
  br i1 %29, label %30, label %33

30:                                               ; preds = %22
  %31 = load ptr, ptr %5, align 8, !tbaa !20
  call void @BIO_copy_next_retry(ptr noundef %31)
  %32 = load i32, ptr %9, align 4, !tbaa !26
  store i32 %32, ptr %4, align 4
  store i32 1, ptr %10, align 4
  br label %185

33:                                               ; preds = %22
  %34 = load i8, ptr %8, align 1, !tbaa !28
  %35 = zext i8 %34 to i32
  %36 = icmp eq i32 %35, 84
  br i1 %36, label %37, label %112

37:                                               ; preds = %33
  call void @llvm.lifetime.start.p0(i64 8, ptr %11) #11
  %38 = load ptr, ptr %5, align 8, !tbaa !20
  %39 = getelementptr inbounds nuw %struct.bio_st, ptr %38, i32 0, i32 10
  %40 = load ptr, ptr %39, align 8, !tbaa !27
  %41 = getelementptr inbounds [8 x i8], ptr %11, i64 0, i64 0
  %42 = call noundef i32 @_ZN12_GLOBAL__N_17ReadAllEP6bio_stPhm(ptr noundef %40, ptr noundef %41, i64 noundef 8)
  store i32 %42, ptr %9, align 4, !tbaa !26
  %43 = load i32, ptr %9, align 4, !tbaa !26
  %44 = icmp sle i32 %43, 0
  br i1 %44, label %45, label %48

45:                                               ; preds = %37
  %46 = load ptr, ptr %5, align 8, !tbaa !20
  call void @BIO_copy_next_retry(ptr noundef %46)
  %47 = load i32, ptr %9, align 4, !tbaa !26
  store i32 %47, ptr %4, align 4
  store i32 1, ptr %10, align 4
  br label %111

48:                                               ; preds = %37
  call void @llvm.lifetime.start.p0(i64 8, ptr %12) #11
  %49 = getelementptr inbounds [8 x i8], ptr %11, i64 0, i64 0
  %50 = load i8, ptr %49, align 1, !tbaa !28
  %51 = zext i8 %50 to i64
  %52 = shl i64 %51, 56
  %53 = getelementptr inbounds [8 x i8], ptr %11, i64 0, i64 1
  %54 = load i8, ptr %53, align 1, !tbaa !28
  %55 = zext i8 %54 to i64
  %56 = shl i64 %55, 48
  %57 = or i64 %52, %56
  %58 = getelementptr inbounds [8 x i8], ptr %11, i64 0, i64 2
  %59 = load i8, ptr %58, align 1, !tbaa !28
  %60 = zext i8 %59 to i64
  %61 = shl i64 %60, 40
  %62 = or i64 %57, %61
  %63 = getelementptr inbounds [8 x i8], ptr %11, i64 0, i64 3
  %64 = load i8, ptr %63, align 1, !tbaa !28
  %65 = zext i8 %64 to i64
  %66 = shl i64 %65, 32
  %67 = or i64 %62, %66
  %68 = getelementptr inbounds [8 x i8], ptr %11, i64 0, i64 4
  %69 = load i8, ptr %68, align 1, !tbaa !28
  %70 = zext i8 %69 to i64
  %71 = shl i64 %70, 24
  %72 = or i64 %67, %71
  %73 = getelementptr inbounds [8 x i8], ptr %11, i64 0, i64 5
  %74 = load i8, ptr %73, align 1, !tbaa !28
  %75 = zext i8 %74 to i64
  %76 = shl i64 %75, 16
  %77 = or i64 %72, %76
  %78 = getelementptr inbounds [8 x i8], ptr %11, i64 0, i64 6
  %79 = load i8, ptr %78, align 1, !tbaa !28
  %80 = zext i8 %79 to i64
  %81 = shl i64 %80, 8
  %82 = or i64 %77, %81
  %83 = getelementptr inbounds [8 x i8], ptr %11, i64 0, i64 7
  %84 = load i8, ptr %83, align 1, !tbaa !28
  %85 = zext i8 %84 to i64
  %86 = or i64 %82, %85
  store i64 %86, ptr %12, align 8, !tbaa !29
  %87 = load i64, ptr %12, align 8, !tbaa !29
  %88 = udiv i64 %87, 1000
  store i64 %88, ptr %12, align 8, !tbaa !29
  call void @llvm.lifetime.start.p0(i64 8, ptr %13) #11
  %89 = load ptr, ptr %5, align 8, !tbaa !20
  %90 = getelementptr inbounds nuw %struct.bio_st, ptr %89, i32 0, i32 9
  %91 = load ptr, ptr %90, align 8, !tbaa !11
  store ptr %91, ptr %13, align 8, !tbaa !6
  %92 = load i64, ptr %12, align 8, !tbaa !29
  %93 = urem i64 %92, 1000000
  %94 = load ptr, ptr %13, align 8, !tbaa !6
  %95 = getelementptr inbounds nuw %struct.timeval, ptr %94, i32 0, i32 1
  store i64 %93, ptr %95, align 8, !tbaa !30
  %96 = load i64, ptr %12, align 8, !tbaa !29
  %97 = udiv i64 %96, 1000000
  %98 = load ptr, ptr %13, align 8, !tbaa !6
  %99 = getelementptr inbounds nuw %struct.timeval, ptr %98, i32 0, i32 0
  store i64 %97, ptr %99, align 8, !tbaa !32
  %100 = load ptr, ptr %5, align 8, !tbaa !20
  %101 = getelementptr inbounds nuw %struct.bio_st, ptr %100, i32 0, i32 10
  %102 = load ptr, ptr %101, align 8, !tbaa !27
  %103 = call i32 @BIO_write(ptr noundef %102, ptr noundef @_ZN12_GLOBAL__N_117kOpcodeTimeoutAckE, i32 noundef 1)
  store i32 %103, ptr %9, align 4, !tbaa !26
  %104 = load i32, ptr %9, align 4, !tbaa !26
  %105 = icmp sle i32 %104, 0
  br i1 %105, label %106, label %108

106:                                              ; preds = %48
  %107 = load i32, ptr %9, align 4, !tbaa !26
  store i32 %107, ptr %4, align 4
  store i32 1, ptr %10, align 4
  br label %110

108:                                              ; preds = %48
  %109 = load ptr, ptr %5, align 8, !tbaa !20
  call void @BIO_set_retry_read(ptr noundef %109)
  store i32 -1, ptr %4, align 4
  store i32 1, ptr %10, align 4
  br label %110

110:                                              ; preds = %108, %106
  call void @llvm.lifetime.end.p0(i64 8, ptr %13) #11
  call void @llvm.lifetime.end.p0(i64 8, ptr %12) #11
  br label %111

111:                                              ; preds = %110, %45
  call void @llvm.lifetime.end.p0(i64 8, ptr %11) #11
  br label %185

112:                                              ; preds = %33
  %113 = load i8, ptr %8, align 1, !tbaa !28
  %114 = zext i8 %113 to i32
  %115 = icmp ne i32 %114, 80
  br i1 %115, label %116, label %121

116:                                              ; preds = %112
  %117 = load ptr, ptr @stderr, align 8, !tbaa !33
  %118 = load i8, ptr %8, align 1, !tbaa !28
  %119 = zext i8 %118 to i32
  %120 = call i32 (ptr, ptr, ...) @fprintf(ptr noundef %117, ptr noundef @.str.1, i32 noundef %119) #11
  store i32 -1, ptr %4, align 4
  store i32 1, ptr %10, align 4
  br label %185

121:                                              ; preds = %112
  call void @llvm.lifetime.start.p0(i64 4, ptr %14) #11
  %122 = load ptr, ptr %5, align 8, !tbaa !20
  %123 = getelementptr inbounds nuw %struct.bio_st, ptr %122, i32 0, i32 10
  %124 = load ptr, ptr %123, align 8, !tbaa !27
  %125 = getelementptr inbounds [4 x i8], ptr %14, i64 0, i64 0
  %126 = call noundef i32 @_ZN12_GLOBAL__N_17ReadAllEP6bio_stPhm(ptr noundef %124, ptr noundef %125, i64 noundef 4)
  store i32 %126, ptr %9, align 4, !tbaa !26
  %127 = load i32, ptr %9, align 4, !tbaa !26
  %128 = icmp sle i32 %127, 0
  br i1 %128, label %129, label %132

129:                                              ; preds = %121
  %130 = load ptr, ptr %5, align 8, !tbaa !20
  call void @BIO_copy_next_retry(ptr noundef %130)
  %131 = load i32, ptr %9, align 4, !tbaa !26
  store i32 %131, ptr %4, align 4
  store i32 1, ptr %10, align 4
  br label %184

132:                                              ; preds = %121
  call void @llvm.lifetime.start.p0(i64 4, ptr %15) #11
  %133 = getelementptr inbounds [4 x i8], ptr %14, i64 0, i64 0
  %134 = load i8, ptr %133, align 1, !tbaa !28
  %135 = zext i8 %134 to i32
  %136 = shl i32 %135, 24
  %137 = getelementptr inbounds [4 x i8], ptr %14, i64 0, i64 1
  %138 = load i8, ptr %137, align 1, !tbaa !28
  %139 = zext i8 %138 to i32
  %140 = shl i32 %139, 16
  %141 = or i32 %136, %140
  %142 = getelementptr inbounds [4 x i8], ptr %14, i64 0, i64 2
  %143 = load i8, ptr %142, align 1, !tbaa !28
  %144 = zext i8 %143 to i32
  %145 = shl i32 %144, 8
  %146 = or i32 %141, %145
  %147 = getelementptr inbounds [4 x i8], ptr %14, i64 0, i64 3
  %148 = load i8, ptr %147, align 1, !tbaa !28
  %149 = zext i8 %148 to i32
  %150 = or i32 %146, %149
  store i32 %150, ptr %15, align 4, !tbaa !26
  call void @llvm.lifetime.start.p0(i64 8, ptr %16) #11
  %151 = load i32, ptr %15, align 4, !tbaa !26
  %152 = zext i32 %151 to i64
  %153 = call noalias ptr @malloc(i64 noundef %152) #13
  store ptr %153, ptr %16, align 8, !tbaa !25
  %154 = load ptr, ptr %16, align 8, !tbaa !25
  %155 = icmp eq ptr %154, null
  br i1 %155, label %156, label %157

156:                                              ; preds = %132
  store i32 -1, ptr %4, align 4
  store i32 1, ptr %10, align 4
  br label %183

157:                                              ; preds = %132
  %158 = load ptr, ptr %5, align 8, !tbaa !20
  %159 = getelementptr inbounds nuw %struct.bio_st, ptr %158, i32 0, i32 10
  %160 = load ptr, ptr %159, align 8, !tbaa !27
  %161 = load ptr, ptr %16, align 8, !tbaa !25
  %162 = load i32, ptr %15, align 4, !tbaa !26
  %163 = zext i32 %162 to i64
  %164 = call noundef i32 @_ZN12_GLOBAL__N_17ReadAllEP6bio_stPhm(ptr noundef %160, ptr noundef %161, i64 noundef %163)
  store i32 %164, ptr %9, align 4, !tbaa !26
  %165 = load i32, ptr %9, align 4, !tbaa !26
  %166 = icmp sle i32 %165, 0
  br i1 %166, label %167, label %170

167:                                              ; preds = %157
  %168 = load ptr, ptr @stderr, align 8, !tbaa !33
  %169 = call i32 (ptr, ptr, ...) @fprintf(ptr noundef %168, ptr noundef @.str.2) #11
  store i32 -1, ptr %4, align 4
  store i32 1, ptr %10, align 4
  br label %183

170:                                              ; preds = %157
  %171 = load i32, ptr %7, align 4, !tbaa !26
  %172 = load i32, ptr %15, align 4, !tbaa !26
  %173 = icmp sgt i32 %171, %172
  br i1 %173, label %174, label %176

174:                                              ; preds = %170
  %175 = load i32, ptr %15, align 4, !tbaa !26
  store i32 %175, ptr %7, align 4, !tbaa !26
  br label %176

176:                                              ; preds = %174, %170
  %177 = load ptr, ptr %6, align 8, !tbaa !25
  %178 = load ptr, ptr %16, align 8, !tbaa !25
  %179 = load i32, ptr %7, align 4, !tbaa !26
  %180 = sext i32 %179 to i64
  call void @llvm.memcpy.p0.p0.i64(ptr align 1 %177, ptr align 1 %178, i64 %180, i1 false)
  %181 = load ptr, ptr %16, align 8, !tbaa !25
  call void @free(ptr noundef %181) #11
  %182 = load i32, ptr %7, align 4, !tbaa !26
  store i32 %182, ptr %4, align 4
  store i32 1, ptr %10, align 4
  br label %183

183:                                              ; preds = %176, %167, %156
  call void @llvm.lifetime.end.p0(i64 8, ptr %16) #11
  call void @llvm.lifetime.end.p0(i64 4, ptr %15) #11
  br label %184

184:                                              ; preds = %183, %129
  call void @llvm.lifetime.end.p0(i64 4, ptr %14) #11
  br label %185

185:                                              ; preds = %184, %116, %111, %30
  call void @llvm.lifetime.end.p0(i64 4, ptr %9) #11
  call void @llvm.lifetime.end.p0(i64 1, ptr %8) #11
  br label %186

186:                                              ; preds = %185, %21
  %187 = load i32, ptr %4, align 4
  ret i32 %187
}