; Function Attrs: mustprogress uwtable
define internal noundef i32 @_ZN12_GLOBAL__N_112PacketedReadEP6bio_stPci(ptr noundef %0, ptr noundef writeonly captures(none) %1, i32 noundef %2) #0 {
  %4 = alloca i8, align 1
  %5 = alloca [8 x i8], align 1
  %6 = alloca [4 x i8], align 1
  %7 = getelementptr inbounds nuw i8, ptr %0, i64 56
  %8 = load ptr, ptr %7, align 8, !tbaa !17
  %9 = icmp eq ptr %8, null
  br i1 %9, label %136, label %10

10:                                               ; preds = %3
  tail call void @BIO_clear_retry_flags(ptr noundef nonnull %0)
  call void @llvm.lifetime.start.p0(i64 1, ptr nonnull %4) #10
  %11 = load ptr, ptr %7, align 8, !tbaa !17
  br label %12

12:                                               ; preds = %13, %10
  %.017.i = phi ptr [ %4, %10 ], [ %19, %13 ]
  %.015.i = phi i64 [ 1, %10 ], [ %20, %13 ]
  %.not.i = icmp eq i64 %.015.i, 0
  br i1 %.not.i, label %_ZN12_GLOBAL__N_17ReadAllEP6bio_stPhm.exit, label %13

13:                                               ; preds = %12
  %14 = icmp ult i64 %.015.i, 2147483648
  %15 = trunc nuw nsw i64 %.015.i to i32
  %spec.select.i = select i1 %14, i32 %15, i32 2147483647
  %16 = call i32 @BIO_read(ptr noundef %11, ptr noundef %.017.i, i32 noundef %spec.select.i)
  %17 = icmp sgt i32 %16, 0
  %18 = zext nneg i32 %16 to i64
  %19 = getelementptr inbounds nuw i8, ptr %.017.i, i64 %18
  %20 = sub i64 %.015.i, %18
  br i1 %17, label %12, label %21

21:                                               ; preds = %13
  call void @BIO_copy_next_retry(ptr noundef nonnull %0)
  br label %135

_ZN12_GLOBAL__N_17ReadAllEP6bio_stPhm.exit:       ; preds = %12
  %22 = load i8, ptr %4, align 1, !tbaa !18
  switch i8 %22, label %83 [
    i8 84, label %23
    i8 80, label %87
  ]

23:                                               ; preds = %_ZN12_GLOBAL__N_17ReadAllEP6bio_stPhm.exit
  call void @llvm.lifetime.start.p0(i64 8, ptr nonnull %5) #10
  %24 = load ptr, ptr %7, align 8, !tbaa !17
  br label %25

25:                                               ; preds = %26, %23
  %.017.i47 = phi ptr [ %5, %23 ], [ %32, %26 ]
  %.015.i48 = phi i64 [ 8, %23 ], [ %33, %26 ]
  %.not.i49 = icmp eq i64 %.015.i48, 0
  br i1 %.not.i49, label %_ZN12_GLOBAL__N_17ReadAllEP6bio_stPhm.exit52, label %26

26:                                               ; preds = %25
  %27 = icmp ult i64 %.015.i48, 2147483648
  %28 = trunc nuw nsw i64 %.015.i48 to i32
  %spec.select.i50 = select i1 %27, i32 %28, i32 2147483647
  %29 = call i32 @BIO_read(ptr noundef %24, ptr noundef %.017.i47, i32 noundef %spec.select.i50)
  %30 = icmp sgt i32 %29, 0
  %31 = zext nneg i32 %29 to i64
  %32 = getelementptr inbounds nuw i8, ptr %.017.i47, i64 %31
  %33 = sub i64 %.015.i48, %31
  br i1 %30, label %25, label %34

34:                                               ; preds = %26
  call void @BIO_copy_next_retry(ptr noundef nonnull %0)
  br label %82

_ZN12_GLOBAL__N_17ReadAllEP6bio_stPhm.exit52:     ; preds = %25
  %35 = load i8, ptr %5, align 1, !tbaa !18
  %36 = zext i8 %35 to i64
  %37 = shl nuw i64 %36, 56
  %38 = getelementptr inbounds nuw i8, ptr %5, i64 1
  %39 = load i8, ptr %38, align 1, !tbaa !18
  %40 = zext i8 %39 to i64
  %41 = shl nuw nsw i64 %40, 48
  %42 = or disjoint i64 %41, %37
  %43 = getelementptr inbounds nuw i8, ptr %5, i64 2
  %44 = load i8, ptr %43, align 1, !tbaa !18
  %45 = zext i8 %44 to i64
  %46 = shl nuw nsw i64 %45, 40
  %47 = or disjoint i64 %42, %46
  %48 = getelementptr inbounds nuw i8, ptr %5, i64 3
  %49 = load i8, ptr %48, align 1, !tbaa !18
  %50 = zext i8 %49 to i64
  %51 = shl nuw nsw i64 %50, 32
  %52 = or disjoint i64 %47, %51
  %53 = getelementptr inbounds nuw i8, ptr %5, i64 4
  %54 = load i8, ptr %53, align 1, !tbaa !18
  %55 = zext i8 %54 to i64
  %56 = shl nuw nsw i64 %55, 24
  %57 = or disjoint i64 %52, %56
  %58 = getelementptr inbounds nuw i8, ptr %5, i64 5
  %59 = load i8, ptr %58, align 1, !tbaa !18
  %60 = zext i8 %59 to i64
  %61 = shl nuw nsw i64 %60, 16
  %62 = or disjoint i64 %57, %61
  %63 = getelementptr inbounds nuw i8, ptr %5, i64 6
  %64 = load i8, ptr %63, align 1, !tbaa !18
  %65 = zext i8 %64 to i64
  %66 = shl nuw nsw i64 %65, 8
  %67 = or i64 %62, %66
  %68 = getelementptr inbounds nuw i8, ptr %5, i64 7
  %69 = load i8, ptr %68, align 1, !tbaa !18
  %70 = zext i8 %69 to i64
  %71 = or i64 %67, %70
  %72 = udiv i64 %71, 1000
  %73 = getelementptr inbounds nuw i8, ptr %0, i64 48
  %74 = load ptr, ptr %73, align 8, !tbaa !6
  %75 = urem i64 %72, 1000000
  %76 = getelementptr inbounds nuw i8, ptr %74, i64 8
  store i64 %75, ptr %76, align 8, !tbaa !19
  %77 = udiv i64 %67, 1000000000
  store i64 %77, ptr %74, align 8, !tbaa !21
  %78 = load ptr, ptr %7, align 8, !tbaa !17
  %79 = call i32 @BIO_write(ptr noundef %78, ptr noundef nonnull @_ZN12_GLOBAL__N_117kOpcodeTimeoutAckE, i32 noundef 1)
  %80 = icmp slt i32 %79, 1
  br i1 %80, label %82, label %81

81:                                               ; preds = %_ZN12_GLOBAL__N_17ReadAllEP6bio_stPhm.exit52
  call void @BIO_set_retry_read(ptr noundef nonnull %0)
  br label %82

82:                                               ; preds = %81, %_ZN12_GLOBAL__N_17ReadAllEP6bio_stPhm.exit52, %34
  %.2 = phi i32 [ %29, %34 ], [ -1, %81 ], [ %79, %_ZN12_GLOBAL__N_17ReadAllEP6bio_stPhm.exit52 ]
  call void @llvm.lifetime.end.p0(i64 8, ptr nonnull %5) #10
  br label %135

83:                                               ; preds = %_ZN12_GLOBAL__N_17ReadAllEP6bio_stPhm.exit
  %84 = zext i8 %22 to i32
  %85 = load ptr, ptr @stderr, align 8, !tbaa !22
  %86 = call i32 (ptr, ptr, ...) @fprintf(ptr noundef %85, ptr noundef nonnull @.str.1, i32 noundef %84) #11
  br label %135

87:                                               ; preds = %_ZN12_GLOBAL__N_17ReadAllEP6bio_stPhm.exit
  call void @llvm.lifetime.start.p0(i64 4, ptr nonnull %6) #10
  %88 = load ptr, ptr %7, align 8, !tbaa !17
  br label %89

89:                                               ; preds = %90, %87
  %.017.i53 = phi ptr [ %6, %87 ], [ %96, %90 ]
  %.015.i54 = phi i64 [ 4, %87 ], [ %97, %90 ]
  %.not.i55 = icmp eq i64 %.015.i54, 0
  br i1 %.not.i55, label %_ZN12_GLOBAL__N_17ReadAllEP6bio_stPhm.exit58, label %90

90:                                               ; preds = %89
  %91 = icmp ult i64 %.015.i54, 2147483648
  %92 = trunc nuw nsw i64 %.015.i54 to i32
  %spec.select.i56 = select i1 %91, i32 %92, i32 2147483647
  %93 = call i32 @BIO_read(ptr noundef %88, ptr noundef %.017.i53, i32 noundef %spec.select.i56)
  %94 = icmp sgt i32 %93, 0
  %95 = zext nneg i32 %93 to i64
  %96 = getelementptr inbounds nuw i8, ptr %.017.i53, i64 %95
  %97 = sub i64 %.015.i54, %95
  br i1 %94, label %89, label %98

98:                                               ; preds = %90
  call void @BIO_copy_next_retry(ptr noundef nonnull %0)
  br label %134

_ZN12_GLOBAL__N_17ReadAllEP6bio_stPhm.exit58:     ; preds = %89
  %99 = load i8, ptr %6, align 1, !tbaa !18
  %100 = zext i8 %99 to i32
  %101 = shl nuw i32 %100, 24
  %102 = getelementptr inbounds nuw i8, ptr %6, i64 1
  %103 = load i8, ptr %102, align 1, !tbaa !18
  %104 = zext i8 %103 to i32
  %105 = shl nuw nsw i32 %104, 16
  %106 = or disjoint i32 %105, %101
  %107 = getelementptr inbounds nuw i8, ptr %6, i64 2
  %108 = load i8, ptr %107, align 1, !tbaa !18
  %109 = zext i8 %108 to i32
  %110 = shl nuw nsw i32 %109, 8
  %111 = or disjoint i32 %106, %110
  %112 = getelementptr inbounds nuw i8, ptr %6, i64 3
  %113 = load i8, ptr %112, align 1, !tbaa !18
  %114 = zext i8 %113 to i32
  %115 = or disjoint i32 %111, %114
  %116 = zext i32 %115 to i64
  %117 = call noalias ptr @malloc(i64 noundef %116) #12
  %118 = icmp eq ptr %117, null
  br i1 %118, label %134, label %119

119:                                              ; preds = %_ZN12_GLOBAL__N_17ReadAllEP6bio_stPhm.exit58
  %120 = load ptr, ptr %7, align 8, !tbaa !17
  br label %121

121:                                              ; preds = %122, %119
  %.017.i59 = phi ptr [ %117, %119 ], [ %128, %122 ]
  %.015.i60 = phi i64 [ %116, %119 ], [ %129, %122 ]
  %.not.i61 = icmp eq i64 %.015.i60, 0
  br i1 %.not.i61, label %_ZN12_GLOBAL__N_17ReadAllEP6bio_stPhm.exit64, label %122

122:                                              ; preds = %121
  %123 = icmp ult i64 %.015.i60, 2147483648
  %124 = trunc nuw nsw i64 %.015.i60 to i32
  %spec.select.i62 = select i1 %123, i32 %124, i32 2147483647
  %125 = call i32 @BIO_read(ptr noundef %120, ptr noundef %.017.i59, i32 noundef %spec.select.i62)
  %126 = icmp sgt i32 %125, 0
  %127 = zext nneg i32 %125 to i64
  %128 = getelementptr inbounds nuw i8, ptr %.017.i59, i64 %127
  %129 = sub i64 %.015.i60, %127
  br i1 %126, label %121, label %130

130:                                              ; preds = %122
  %131 = load ptr, ptr @stderr, align 8, !tbaa !22
  %132 = call i64 @fwrite(ptr nonnull @.str.2, i64 27, i64 1, ptr %131) #13
  br label %134

_ZN12_GLOBAL__N_17ReadAllEP6bio_stPhm.exit64:     ; preds = %121
  %spec.select = call i32 @llvm.smin.i32(i32 %2, i32 %115)
  %133 = sext i32 %spec.select to i64
  call void @llvm.memcpy.p0.p0.i64(ptr align 1 %1, ptr nonnull align 1 %117, i64 %133, i1 false)
  call void @free(ptr noundef %117) #10
  br label %134

134:                                              ; preds = %130, %_ZN12_GLOBAL__N_17ReadAllEP6bio_stPhm.exit64, %_ZN12_GLOBAL__N_17ReadAllEP6bio_stPhm.exit58, %98
  %.4 = phi i32 [ %93, %98 ], [ -1, %130 ], [ %spec.select, %_ZN12_GLOBAL__N_17ReadAllEP6bio_stPhm.exit64 ], [ -1, %_ZN12_GLOBAL__N_17ReadAllEP6bio_stPhm.exit58 ]
  call void @llvm.lifetime.end.p0(i64 4, ptr nonnull %6) #10
  br label %135

135:                                              ; preds = %134, %83, %82, %21
  %.1 = phi i32 [ %16, %21 ], [ %.2, %82 ], [ -1, %83 ], [ %.4, %134 ]
  call void @llvm.lifetime.end.p0(i64 1, ptr nonnull %4) #10
  br label %136

136:                                              ; preds = %3, %135
  %.0 = phi i32 [ %.1, %135 ], [ 0, %3 ]
  ret i32 %.0
}